target datalayout = "e-m:e-p270:32:32-p271:32:32-p272:64:64-i64:64-i128:128-f80:128-n8:16:32:64-S128"
target triple = "x86_64-pc-linux-gnu"

; Function Attrs: nounwind uwtable
define i32 @compareWords(ptr noundef %0, ptr noundef %1) #0 {
  %3 = alloca i32, align 4
  %4 = alloca ptr, align 8
  %5 = alloca ptr, align 8
  store ptr %0, ptr %4, align 8, !tbaa !14
  store ptr %1, ptr %5, align 8, !tbaa !14
  %6 = load ptr, ptr %4, align 8, !tbaa !14
  %7 = load ptr, ptr %6, align 8, !tbaa !3
  %8 = load ptr, ptr %5, align 8, !tbaa !14
  %9 = load ptr, ptr %8, align 8, !tbaa !3
  %10 = call i32 @memcmp(ptr noundef %7, ptr noundef %9, i64 noundef 8) #8
  %11 = icmp sgt i32 %10, 0
  br i1 %11, label %12, label %13

12:                                               ; preds = %2
  store i32 1, ptr %3, align 4
  br label %21

13:                                               ; preds = %2
  %14 = load ptr, ptr %4, align 8, !tbaa !14
  %15 = load ptr, ptr %14, align 8, !tbaa !3
  %16 = load ptr, ptr %5, align 8, !tbaa !14
  %17 = load ptr, ptr %16, align 8, !tbaa !3
  %18 = call i32 @memcmp(ptr noundef %15, ptr noundef %17, i64 noundef 8) #8
  %19 = icmp slt i32 %18, 0
  %20 = select i1 %19, i32 -1, i32 0
  store i32 %20, ptr %3, align 4
  br label %21

21:                                               ; preds = %13, %12
  %22 = load i32, ptr %3, align 4
  ret i32 %22
}