; Function Attrs: mustprogress nofree nounwind willreturn memory(read, inaccessiblemem: none) uwtable
define range(i32 -1, 2) i32 @compareWords(ptr noundef readonly captures(none) %0, ptr noundef readonly captures(none) %1) local_unnamed_addr #7 {
  %3 = load ptr, ptr %0, align 8, !tbaa !15
  %4 = load ptr, ptr %1, align 8, !tbaa !15
  %5 = tail call i32 @memcmp(ptr noundef nonnull dereferenceable(8) %3, ptr noundef nonnull dereferenceable(8) %4, i64 noundef 8) #20
  %.not = icmp ne i32 %5, 0
  %6 = sext i1 %.not to i32
  %.inv = icmp slt i32 %5, 1
  %.0 = select i1 %.inv, i32 %6, i32 1
  ret i32 %.0
}